; ModuleID = '60/310.c'
source_filename = "60/310.c"
target datalayout = "e-m:e-p270:32:32-p271:32:32-p272:64:64-i64:64-f80:128-n8:16:32:64-S128"
target triple = "x86_64-pc-linux-gnu"

@.str = private unnamed_addr constant [3 x i8] c"%d\00", align 1
@.str.1 = private unnamed_addr constant [6 x i8] c"empty\00", align 1
@.str.2 = private unnamed_addr constant [7 x i8] c"%d %d\0A\00", align 1

; Function Attrs: noinline nounwind uwtable
define dso_local i32 @main() #0 {
  %1 = alloca i32, align 4
  %2 = alloca [10000 x i32], align 16
  %3 = alloca i32, align 4
  %4 = alloca i32, align 4
  %5 = alloca [10000 x [2 x i32]], align 16
  %6 = alloca i32, align 4
  %7 = alloca i32, align 4
  %8 = alloca i32, align 4
  %9 = alloca i32, align 4
  %10 = alloca i32, align 4
  %11 = alloca i32, align 4
  %12 = alloca i32, align 4
  store i32 0, i32* %1, align 4
  store i32 0, i32* %4, align 4
  %13 = call i32 (i8*, ...) @__isoc99_scanf(i8* getelementptr inbounds ([3 x i8], [3 x i8]* @.str, i64 0, i64 0), i32* %3)
  store i32 2, i32* %6, align 4
  br label %14

14:                                               ; preds = %50, %0
  %15 = load i32, i32* %6, align 4
  %16 = load i32, i32* %3, align 4
  %17 = icmp sle i32 %15, %16
  br i1 %17, label %18, label %53

18:                                               ; preds = %14
  store i32 0, i32* %7, align 4
  store i32 2, i32* %8, align 4
  br label %19

19:                                               ; preds = %36, %18
  %20 = load i32, i32* %8, align 4
  %21 = load i32, i32* %6, align 4
  %22 = icmp sle i32 %20, %21
  br i1 %22, label %23, label %39

23:                                               ; preds = %19
  %24 = load i32, i32* %6, align 4
  %25 = load i32, i32* %8, align 4
  %26 = srem i32 %24, %25
  %27 = icmp eq i32 %26, 0
  br i1 %27, label %28, label %35

28:                                               ; preds = %23
  %29 = load i32, i32* %6, align 4
  %30 = load i32, i32* %8, align 4
  %31 = icmp ne i32 %29, %30
  br i1 %31, label %32, label %35

32:                                               ; preds = %28
  %33 = load i32, i32* %7, align 4
  %34 = add nsw i32 %33, 1
  store i32 %34, i32* %7, align 4
  br label %35

35:                                               ; preds = %32, %28, %23
  br label %36

36:                                               ; preds = %35
  %37 = load i32, i32* %8, align 4
  %38 = add nsw i32 %37, 1
  store i32 %38, i32* %8, align 4
  br label %19

39:                                               ; preds = %19
  %40 = load i32, i32* %7, align 4
  %41 = icmp eq i32 %40, 0
  br i1 %41, label %42, label %49

42:                                               ; preds = %39
  %43 = load i32, i32* %4, align 4
  %44 = add nsw i32 %43, 1
  store i32 %44, i32* %4, align 4
  %45 = load i32, i32* %6, align 4
  %46 = load i32, i32* %4, align 4
  %47 = sext i32 %46 to i64
  %48 = getelementptr inbounds [10000 x i32], [10000 x i32]* %2, i64 0, i64 %47
  store i32 %45, i32* %48, align 4
  br label %49

49:                                               ; preds = %42, %39
  br label %50

50:                                               ; preds = %49
  %51 = load i32, i32* %6, align 4
  %52 = add nsw i32 %51, 1
  store i32 %52, i32* %6, align 4
  br label %14

53:                                               ; preds = %14
  store i32 0, i32* %9, align 4
  store i32 1, i32* %10, align 4
  br label %54

54:                                               ; preds = %98, %53
  %55 = load i32, i32* %10, align 4
  %56 = load i32, i32* %4, align 4
  %57 = icmp sle i32 %55, %56
  br i1 %57, label %58, label %101

58:                                               ; preds = %54
  store i32 1, i32* %11, align 4
  br label %59

59:                                               ; preds = %94, %58
  %60 = load i32, i32* %11, align 4
  %61 = load i32, i32* %4, align 4
  %62 = icmp sle i32 %60, %61
  br i1 %62, label %63, label %97

63:                                               ; preds = %59
  %64 = load i32, i32* %11, align 4
  %65 = sext i32 %64 to i64
  %66 = getelementptr inbounds [10000 x i32], [10000 x i32]* %2, i64 0, i64 %65
  %67 = load i32, i32* %66, align 4
  %68 = load i32, i32* %10, align 4
  %69 = sext i32 %68 to i64
  %70 = getelementptr inbounds [10000 x i32], [10000 x i32]* %2, i64 0, i64 %69
  %71 = load i32, i32* %70, align 4
  %72 = sub nsw i32 %67, %71
  %73 = icmp eq i32 %72, 2
  br i1 %73, label %74, label %93

74:                                               ; preds = %63
  %75 = load i32, i32* %9, align 4
  %76 = add nsw i32 %75, 1
  store i32 %76, i32* %9, align 4
  %77 = load i32, i32* %10, align 4
  %78 = sext i32 %77 to i64
  %79 = getelementptr inbounds [10000 x i32], [10000 x i32]* %2, i64 0, i64 %78
  %80 = load i32, i32* %79, align 4
  %81 = load i32, i32* %9, align 4
  %82 = sext i32 %81 to i64
  %83 = getelementptr inbounds [10000 x [2 x i32]], [10000 x [2 x i32]]* %5, i64 0, i64 %82
  %84 = getelementptr inbounds [2 x i32], [2 x i32]* %83, i64 0, i64 1
  store i32 %80, i32* %84, align 4
  %85 = load i32, i32* %11, align 4
  %86 = sext i32 %85 to i64
  %87 = getelementptr inbounds [10000 x i32], [10000 x i32]* %2, i64 0, i64 %86
  %88 = load i32, i32* %87, align 4
  %89 = load i32, i32* %9, align 4
  %90 = sext i32 %89 to i64
  %91 = getelementptr inbounds [10000 x [2 x i32]], [10000 x [2 x i32]]* %5, i64 0, i64 %90
  %92 = getelementptr inbounds [2 x i32], [2 x i32]* %91, i64 0, i64 2
  store i32 %88, i32* %92, align 8
  br label %93

93:                                               ; preds = %74, %63
  br label %94

94:                                               ; preds = %93
  %95 = load i32, i32* %11, align 4
  %96 = add nsw i32 %95, 1
  store i32 %96, i32* %11, align 4
  br label %59

97:                                               ; preds = %59
  br label %98

98:                                               ; preds = %97
  %99 = load i32, i32* %10, align 4
  %100 = add nsw i32 %99, 1
  store i32 %100, i32* %10, align 4
  br label %54

101:                                              ; preds = %54
  %102 = load i32, i32* %9, align 4
  %103 = icmp eq i32 %102, 0
  br i1 %103, label %104, label %106

104:                                              ; preds = %101
  %105 = call i32 (i8*, ...) @printf(i8* getelementptr inbounds ([6 x i8], [6 x i8]* @.str.1, i64 0, i64 0))
  br label %127

106:                                              ; preds = %101
  store i32 1, i32* %12, align 4
  br label %107

107:                                              ; preds = %123, %106
  %108 = load i32, i32* %12, align 4
  %109 = load i32, i32* %9, align 4
  %110 = icmp sle i32 %108, %109
  br i1 %110, label %111, label %126

111:                                              ; preds = %107
  %112 = load i32, i32* %12, align 4
  %113 = sext i32 %112 to i64
  %114 = getelementptr inbounds [10000 x [2 x i32]], [10000 x [2 x i32]]* %5, i64 0, i64 %113
  %115 = getelementptr inbounds [2 x i32], [2 x i32]* %114, i64 0, i64 1
  %116 = load i32, i32* %115, align 4
  %117 = load i32, i32* %12, align 4
  %118 = sext i32 %117 to i64
  %119 = getelementptr inbounds [10000 x [2 x i32]], [10000 x [2 x i32]]* %5, i64 0, i64 %118
  %120 = getelementptr inbounds [2 x i32], [2 x i32]* %119, i64 0, i64 2
  %121 = load i32, i32* %120, align 8
  %122 = call i32 (i8*, ...) @printf(i8* getelementptr inbounds ([7 x i8], [7 x i8]* @.str.2, i64 0, i64 0), i32 %116, i32 %121)
  br label %123

123:                                              ; preds = %111
  %124 = load i32, i32* %12, align 4
  %125 = add nsw i32 %124, 1
  store i32 %125, i32* %12, align 4
  br label %107

126:                                              ; preds = %107
  br label %127

127:                                              ; preds = %126, %104
  %128 = call i32 @getchar()
  %129 = call i32 @getchar()
  %130 = load i32, i32* %1, align 4
  ret i32 %130
}

declare dso_local i32 @__isoc99_scanf(i8*, ...) #1

declare dso_local i32 @printf(i8*, ...) #1

declare dso_local i32 @getchar() #1


!llvm.module.flags = !{!0}
!llvm.ident = !{!1}

!0 = !{i32 1, !"wchar_size", i32 4}
!1 = !{!"clang version 10.0.0-4ubuntu1 "}
